; Function Attrs: nounwind uwtable
define noundef i32 @prte_hwloc_print(ptr noundef writeonly captures(none) initializes((0, 8)) %0, ptr noundef %1, ptr noundef %2) local_unnamed_addr #0 {
  %4 = alloca ptr, align 8
  call void @llvm.lifetime.start.p0(i64 8, ptr nonnull %4) #18
  store ptr null, ptr %4, align 8, !tbaa !20
  %5 = tail call ptr @hwloc_get_obj_by_depth(ptr noundef readonly %2, i32 noundef 0, i32 noundef 0) #19
  call fastcc void @print_hwloc_obj(ptr noundef %4, ptr noundef %1, ptr noundef %2, ptr noundef %5)
  %6 = load ptr, ptr %4, align 8, !tbaa !20
  store ptr %6, ptr %0, align 8, !tbaa !20
  call void @llvm.lifetime.end.p0(i64 8, ptr nonnull %4) #18
  ret i32 0
}